; ModuleID = 'source-C-CXX/18/2050.c'
source_filename = "source-C-CXX/18/2050.c"
target datalayout = "e-m:e-p270:32:32-p271:32:32-p272:64:64-i64:64-f80:128-n8:16:32:64-S128"
target triple = "x86_64-pc-linux-gnu"

@.str = private unnamed_addr constant [3 x i8] c"%s\00", align 1
@.str.1 = private unnamed_addr constant [4 x i8] c" %s\00", align 1

; Function Attrs: nounwind sspstrong uwtable
define dso_local i32 @main() local_unnamed_addr #0 {
  %1 = alloca [200 x i8], align 16
  %2 = alloca [100 x i8], align 16
  %3 = alloca [100 x i8], align 16
  %4 = alloca [100 x [20 x i8]], align 16
  %5 = getelementptr inbounds [200 x i8], [200 x i8]* %1, i64 0, i64 0
  call void @llvm.lifetime.start.p0i8(i64 200, i8* nonnull %5) #6
  %6 = getelementptr inbounds [100 x i8], [100 x i8]* %2, i64 0, i64 0
  call void @llvm.lifetime.start.p0i8(i64 100, i8* nonnull %6) #6
  %7 = getelementptr inbounds [100 x i8], [100 x i8]* %3, i64 0, i64 0
  call void @llvm.lifetime.start.p0i8(i64 100, i8* nonnull %7) #6
  %8 = getelementptr inbounds [100 x [20 x i8]], [100 x [20 x i8]]* %4, i64 0, i64 0, i64 0
  call void @llvm.lifetime.start.p0i8(i64 2000, i8* nonnull %8) #6
  %9 = call i32 (i8*, ...) bitcast (i32 (...)* @gets to i32 (i8*, ...)*)(i8* nonnull %5) #6
  %10 = call i32 (i8*, ...) bitcast (i32 (...)* @gets to i32 (i8*, ...)*)(i8* nonnull %6) #6
  %11 = call i32 (i8*, ...) bitcast (i32 (...)* @gets to i32 (i8*, ...)*)(i8* nonnull %7) #6
  %12 = call i64 @strlen(i8* noundef nonnull %5) #7
  %13 = trunc i64 %12 to i32
  %14 = icmp slt i32 %13, 0
  br i1 %14, label %20, label %15

15:                                               ; preds = %0
  %16 = add i64 %12, 1
  %17 = and i64 %16, 4294967295
  br label %31

18:                                               ; preds = %45
  %19 = icmp slt i32 %46, 0
  br i1 %19, label %61, label %20

20:                                               ; preds = %0, %18
  %21 = phi i32 [ %46, %18 ], [ 0, %0 ]
  %22 = add nuw i32 %21, 1
  %23 = zext i32 %22 to i64
  %24 = call i32 @strcmp(i8* noundef nonnull %8, i8* noundef nonnull %6) #7
  %25 = icmp eq i32 %24, 0
  br i1 %25, label %26, label %28

26:                                               ; preds = %20
  %27 = call i8* @strcpy(i8* noundef nonnull %8, i8* noundef nonnull %7) #6
  br label %28

28:                                               ; preds = %26, %20
  %29 = call i32 (i8*, ...) @printf(i8* nonnull dereferenceable(1) getelementptr inbounds ([3 x i8], [3 x i8]* @.str, i64 0, i64 0), i8* nonnull %8)
  %30 = icmp eq i32 %21, 0
  br i1 %30, label %61, label %50

31:                                               ; preds = %15, %45
  %32 = phi i64 [ 0, %15 ], [ %48, %45 ]
  %33 = phi i32 [ 0, %15 ], [ %47, %45 ]
  %34 = phi i32 [ 0, %15 ], [ %46, %45 ]
  %35 = getelementptr inbounds [200 x i8], [200 x i8]* %1, i64 0, i64 %32
  %36 = load i8, i8* %35, align 1, !tbaa !5
  %37 = icmp eq i8 %36, 32
  %38 = sext i32 %34 to i64
  %39 = sext i32 %33 to i64
  %40 = getelementptr inbounds [100 x [20 x i8]], [100 x [20 x i8]]* %4, i64 0, i64 %38, i64 %39
  br i1 %37, label %41, label %43

41:                                               ; preds = %31
  store i8 0, i8* %40, align 1, !tbaa !5
  %42 = add nsw i32 %34, 1
  br label %45

43:                                               ; preds = %31
  store i8 %36, i8* %40, align 1, !tbaa !5
  %44 = add nsw i32 %33, 1
  br label %45

45:                                               ; preds = %41, %43
  %46 = phi i32 [ %42, %41 ], [ %34, %43 ]
  %47 = phi i32 [ 0, %41 ], [ %44, %43 ]
  %48 = add nuw nsw i64 %32, 1
  %49 = icmp eq i64 %48, %17
  br i1 %49, label %18, label %31, !llvm.loop !8

50:                                               ; preds = %28, %57
  %51 = phi i64 [ %59, %57 ], [ 1, %28 ]
  %52 = getelementptr inbounds [100 x [20 x i8]], [100 x [20 x i8]]* %4, i64 0, i64 %51, i64 0
  %53 = call i32 @strcmp(i8* noundef nonnull %52, i8* noundef nonnull %6) #7
  %54 = icmp eq i32 %53, 0
  br i1 %54, label %55, label %57

55:                                               ; preds = %50
  %56 = call i8* @strcpy(i8* noundef nonnull %52, i8* noundef nonnull %7) #6
  br label %57

57:                                               ; preds = %55, %50
  %58 = call i32 (i8*, ...) @printf(i8* nonnull dereferenceable(1) getelementptr inbounds ([4 x i8], [4 x i8]* @.str.1, i64 0, i64 0), i8* nonnull %52)
  %59 = add nuw nsw i64 %51, 1
  %60 = icmp eq i64 %59, %23
  br i1 %60, label %61, label %50, !llvm.loop !10

61:                                               ; preds = %57, %28, %18
  call void @llvm.lifetime.end.p0i8(i64 2000, i8* nonnull %8) #6
  call void @llvm.lifetime.end.p0i8(i64 100, i8* nonnull %7) #6
  call void @llvm.lifetime.end.p0i8(i64 100, i8* nonnull %6) #6
  call void @llvm.lifetime.end.p0i8(i64 200, i8* nonnull %5) #6
  ret i32 0
}

; Function Attrs: argmemonly mustprogress nofree nosync nounwind willreturn
declare void @llvm.lifetime.start.p0i8(i64 immarg, i8* nocapture) #1

declare i32 @gets(...) local_unnamed_addr #2

; Function Attrs: argmemonly mustprogress nofree nounwind readonly willreturn
declare i64 @strlen(i8* nocapture) local_unnamed_addr #3

; Function Attrs: argmemonly mustprogress nofree nounwind readonly willreturn
declare i32 @strcmp(i8* nocapture, i8* nocapture) local_unnamed_addr #3

; Function Attrs: argmemonly mustprogress nofree nounwind willreturn
declare i8* @strcpy(i8* noalias returned writeonly, i8* noalias nocapture readonly) local_unnamed_addr #4

; Function Attrs: nofree nounwind
declare noundef i32 @printf(i8* nocapture noundef readonly, ...) local_unnamed_addr #5

; Function Attrs: argmemonly mustprogress nofree nosync nounwind willreturn
declare void @llvm.lifetime.end.p0i8(i64 immarg, i8* nocapture) #1


!llvm.module.flags = !{!0, !1, !2, !3}
!llvm.ident = !{!4}

!0 = !{i32 1, !"wchar_size", i32 4}
!1 = !{i32 7, !"PIC Level", i32 2}
!2 = !{i32 7, !"PIE Level", i32 2}
!3 = !{i32 7, !"uwtable", i32 1}
!4 = !{!"clang version 13.0.0"}
!5 = !{!6, !6, i64 0}
!6 = !{!"omnipotent char", !7, i64 0}
!7 = !{!"Simple C/C++ TBAA"}
!8 = distinct !{!8, !9}
!9 = !{!"llvm.loop.mustprogress"}
!10 = distinct !{!10, !9, !11}
!11 = !{!"llvm.loop.peeled.count", i32 1}
